
./a.out:     file format elf32-tradlittlemips


Disassembly of section .init:

00400634 <_init>:
  400634:	3c1c0002 	lui	gp,0x2
  400638:	279c881c 	addiu	gp,gp,-30692
  40063c:	0399e021 	addu	gp,gp,t9
  400640:	27bdffe0 	addiu	sp,sp,-32
  400644:	afbc0010 	sw	gp,16(sp)
  400648:	afbf001c 	sw	ra,28(sp)
  40064c:	8f828058 	lw	v0,-32680(gp)
  400650:	10400004 	beqz	v0,400664 <_init+0x30>
  400654:	00200825 	move	at,at
  400658:	8f998058 	lw	t9,-32680(gp)
  40065c:	0320f809 	jalr	t9
  400660:	00200825 	move	at,at
  400664:	04110001 	bal	40066c <_init+0x38>
  400668:	00200825 	move	at,at
  40066c:	3c1c0042 	lui	gp,0x42
  400670:	279c8e50 	addiu	gp,gp,-29104
  400674:	8f998024 	lw	t9,-32732(gp)
  400678:	2739085c 	addiu	t9,t9,2140
  40067c:	04110077 	bal	40085c <frame_dummy>
  400680:	00200825 	move	at,at
  400684:	8fbc0010 	lw	gp,16(sp)
  400688:	04110001 	bal	400690 <_init+0x5c>
  40068c:	00200825 	move	at,at
  400690:	3c1c0042 	lui	gp,0x42
  400694:	279c8e50 	addiu	gp,gp,-29104
  400698:	8f998024 	lw	t9,-32732(gp)
  40069c:	27390cb0 	addiu	t9,t9,3248
  4006a0:	04110183 	bal	400cb0 <__do_global_ctors_aux>
  4006a4:	00200825 	move	at,at
  4006a8:	8fbf001c 	lw	ra,28(sp)
  4006ac:	03e00008 	jr	ra
  4006b0:	27bd0020 	addiu	sp,sp,32

Disassembly of section .text:

004006c0 <__start>:
  4006c0:	03e00025 	move	zero,ra
  4006c4:	04110001 	bal	4006cc <__start+0xc>
  4006c8:	00200825 	move	at,at
  4006cc:	3c1c0042 	lui	gp,0x42
  4006d0:	279c8e50 	addiu	gp,gp,-29104
  4006d4:	0000f825 	move	ra,zero
  4006d8:	8f848018 	lw	a0,-32744(gp)
  4006dc:	8fa50000 	lw	a1,0(sp)
  4006e0:	27a60004 	addiu	a2,sp,4
  4006e4:	2401fff8 	li	at,-8
  4006e8:	03a1e824 	and	sp,sp,at
  4006ec:	27bdffe0 	addiu	sp,sp,-32
  4006f0:	8f87801c 	lw	a3,-32740(gp)
  4006f4:	8f888020 	lw	t0,-32736(gp)
  4006f8:	afa80010 	sw	t0,16(sp)
  4006fc:	afa20014 	sw	v0,20(sp)
  400700:	afbd0018 	sw	sp,24(sp)
  400704:	8f99804c 	lw	t9,-32692(gp)
  400708:	0320f809 	jalr	t9
  40070c:	00200825 	move	at,at

00400710 <hlt>:
  400710:	1000ffff 	b	400710 <hlt>
  400714:	00200825 	move	at,at
  400718:	00200825 	move	at,at
  40071c:	00200825 	move	at,at

00400720 <deregister_tm_clones>:
  400720:	3c040041 	lui	a0,0x41
  400724:	3c020041 	lui	v0,0x41
  400728:	24840e54 	addiu	a0,a0,3668
  40072c:	24420e57 	addiu	v0,v0,3671
  400730:	00441023 	subu	v0,v0,a0
  400734:	2c420007 	sltiu	v0,v0,7
  400738:	14400007 	bnez	v0,400758 <deregister_tm_clones+0x38>
  40073c:	3c1c0042 	lui	gp,0x42
  400740:	279c8e50 	addiu	gp,gp,-29104
  400744:	8f998068 	lw	t9,-32664(gp)
  400748:	13200003 	beqz	t9,400758 <deregister_tm_clones+0x38>
  40074c:	00200825 	move	at,at
  400750:	03200008 	jr	t9
  400754:	00200825 	move	at,at
  400758:	03e00008 	jr	ra
  40075c:	00200825 	move	at,at

00400760 <register_tm_clones>:
  400760:	3c040041 	lui	a0,0x41
  400764:	3c020041 	lui	v0,0x41
  400768:	24840e54 	addiu	a0,a0,3668
  40076c:	24420e54 	addiu	v0,v0,3668
  400770:	00441023 	subu	v0,v0,a0
  400774:	00021083 	sra	v0,v0,0x2
  400778:	00022fc2 	srl	a1,v0,0x1f
  40077c:	00a22821 	addu	a1,a1,v0
  400780:	00052843 	sra	a1,a1,0x1
  400784:	10a00007 	beqz	a1,4007a4 <register_tm_clones+0x44>
  400788:	3c1c0042 	lui	gp,0x42
  40078c:	279c8e50 	addiu	gp,gp,-29104
  400790:	8f99803c 	lw	t9,-32708(gp)
  400794:	13200003 	beqz	t9,4007a4 <register_tm_clones+0x44>
  400798:	00200825 	move	at,at
  40079c:	03200008 	jr	t9
  4007a0:	00200825 	move	at,at
  4007a4:	03e00008 	jr	ra
  4007a8:	00200825 	move	at,at

004007ac <__do_global_dtors_aux>:
  4007ac:	27bdffd0 	addiu	sp,sp,-48
  4007b0:	afb30028 	sw	s3,40(sp)
  4007b4:	3c130041 	lui	s3,0x41
  4007b8:	afbf002c 	sw	ra,44(sp)
  4007bc:	afb20024 	sw	s2,36(sp)
  4007c0:	afb10020 	sw	s1,32(sp)
  4007c4:	afb0001c 	sw	s0,28(sp)
  4007c8:	92620ec0 	lbu	v0,3776(s3)
  4007cc:	1440001c 	bnez	v0,400840 <__do_global_dtors_aux+0x94>
  4007d0:	3c110041 	lui	s1,0x41
  4007d4:	3c020041 	lui	v0,0x41
  4007d8:	26310e2c 	addiu	s1,s1,3628
  4007dc:	24420e30 	addiu	v0,v0,3632
  4007e0:	3c100041 	lui	s0,0x41
  4007e4:	00518823 	subu	s1,v0,s1
  4007e8:	3c020041 	lui	v0,0x41
  4007ec:	00118883 	sra	s1,s1,0x2
  4007f0:	24520e2c 	addiu	s2,v0,3628
  4007f4:	8e020ec4 	lw	v0,3780(s0)
  4007f8:	2631ffff 	addiu	s1,s1,-1
  4007fc:	0051182b 	sltu	v1,v0,s1
  400800:	1060000b 	beqz	v1,400830 <__do_global_dtors_aux+0x84>
  400804:	24420001 	addiu	v0,v0,1
  400808:	00021880 	sll	v1,v0,0x2
  40080c:	ae020ec4 	sw	v0,3780(s0)
  400810:	02431021 	addu	v0,s2,v1
  400814:	8c590000 	lw	t9,0(v0)
  400818:	0320f809 	jalr	t9
  40081c:	00200825 	move	at,at
  400820:	8e020ec4 	lw	v0,3780(s0)
  400824:	0051182b 	sltu	v1,v0,s1
  400828:	1460fff7 	bnez	v1,400808 <__do_global_dtors_aux+0x5c>
  40082c:	24420001 	addiu	v0,v0,1
  400830:	0c1001c8 	jal	400720 <deregister_tm_clones>
  400834:	00200825 	move	at,at
  400838:	24020001 	li	v0,1
  40083c:	a2620ec0 	sb	v0,3776(s3)
  400840:	8fbf002c 	lw	ra,44(sp)
  400844:	8fb30028 	lw	s3,40(sp)
  400848:	8fb20024 	lw	s2,36(sp)
  40084c:	8fb10020 	lw	s1,32(sp)
  400850:	8fb0001c 	lw	s0,28(sp)
  400854:	03e00008 	jr	ra
  400858:	27bd0030 	addiu	sp,sp,48

0040085c <frame_dummy>:
  40085c:	3c020041 	lui	v0,0x41
  400860:	24440e34 	addiu	a0,v0,3636
  400864:	8c820000 	lw	v0,0(a0)
  400868:	14400003 	bnez	v0,400878 <frame_dummy+0x1c>
  40086c:	3c1c0042 	lui	gp,0x42
  400870:	081001d8 	j	400760 <register_tm_clones>
  400874:	00200825 	move	at,at
  400878:	27bdffe0 	addiu	sp,sp,-32
  40087c:	279c8e50 	addiu	gp,gp,-29104
  400880:	afbf001c 	sw	ra,28(sp)
  400884:	afbc0010 	sw	gp,16(sp)
  400888:	8f998044 	lw	t9,-32700(gp)
  40088c:	13200005 	beqz	t9,4008a4 <frame_dummy+0x48>
  400890:	8fbf001c 	lw	ra,28(sp)
  400894:	0320f809 	jalr	t9
  400898:	00200825 	move	at,at
  40089c:	8fbc0010 	lw	gp,16(sp)
  4008a0:	8fbf001c 	lw	ra,28(sp)
  4008a4:	081001d8 	j	400760 <register_tm_clones>
  4008a8:	27bd0020 	addiu	sp,sp,32
  4008ac:	00200825 	move	at,at

004008b0 <ordenamiento_iterativo>:
  4008b0:	27bdffe0 	addiu	sp,sp,-32
  4008b4:	afbe001c 	sw	s8,28(sp)
  4008b8:	03a0f025 	move	s8,sp
  4008bc:	afc40020 	sw	a0,32(s8)
  4008c0:	afc50024 	sw	a1,36(s8)
  4008c4:	24020001 	li	v0,1
  4008c8:	afc20008 	sw	v0,8(s8)
  4008cc:	10000037 	b	4009ac <ordenamiento_iterativo+0xfc>
  4008d0:	00200825 	move	at,at
  4008d4:	afc0000c 	sw	zero,12(s8)
  4008d8:	1000002a 	b	400984 <ordenamiento_iterativo+0xd4>
  4008dc:	00200825 	move	at,at
  4008e0:	8fc2000c 	lw	v0,12(s8)
  4008e4:	00021080 	sll	v0,v0,0x2
  4008e8:	8fc30020 	lw	v1,32(s8)
  4008ec:	00621021 	addu	v0,v1,v0
  4008f0:	8c430000 	lw	v1,0(v0)
  4008f4:	8fc2000c 	lw	v0,12(s8)
  4008f8:	24420001 	addiu	v0,v0,1
  4008fc:	00021080 	sll	v0,v0,0x2
  400900:	8fc40020 	lw	a0,32(s8)
  400904:	00821021 	addu	v0,a0,v0
  400908:	8c420000 	lw	v0,0(v0)
  40090c:	0043102a 	slt	v0,v0,v1
  400910:	10400019 	beqz	v0,400978 <ordenamiento_iterativo+0xc8>
  400914:	00200825 	move	at,at
  400918:	8fc2000c 	lw	v0,12(s8)
  40091c:	00021080 	sll	v0,v0,0x2
  400920:	8fc30020 	lw	v1,32(s8)
  400924:	00621021 	addu	v0,v1,v0
  400928:	8c420000 	lw	v0,0(v0)
  40092c:	afc20010 	sw	v0,16(s8)
  400930:	8fc2000c 	lw	v0,12(s8)
  400934:	00021080 	sll	v0,v0,0x2
  400938:	8fc30020 	lw	v1,32(s8)
  40093c:	00621021 	addu	v0,v1,v0
  400940:	8fc3000c 	lw	v1,12(s8)
  400944:	24630001 	addiu	v1,v1,1
  400948:	00031880 	sll	v1,v1,0x2
  40094c:	8fc40020 	lw	a0,32(s8)
  400950:	00831821 	addu	v1,a0,v1
  400954:	8c630000 	lw	v1,0(v1)
  400958:	ac430000 	sw	v1,0(v0)
  40095c:	8fc2000c 	lw	v0,12(s8)
  400960:	24420001 	addiu	v0,v0,1
  400964:	00021080 	sll	v0,v0,0x2
  400968:	8fc30020 	lw	v1,32(s8)
  40096c:	00621021 	addu	v0,v1,v0
  400970:	8fc30010 	lw	v1,16(s8)
  400974:	ac430000 	sw	v1,0(v0)
  400978:	8fc2000c 	lw	v0,12(s8)
  40097c:	24420001 	addiu	v0,v0,1
  400980:	afc2000c 	sw	v0,12(s8)
  400984:	8fc30024 	lw	v1,36(s8)
  400988:	8fc20008 	lw	v0,8(s8)
  40098c:	00621823 	subu	v1,v1,v0
  400990:	8fc2000c 	lw	v0,12(s8)
  400994:	0043102a 	slt	v0,v0,v1
  400998:	1440ffd1 	bnez	v0,4008e0 <ordenamiento_iterativo+0x30>
  40099c:	00200825 	move	at,at
  4009a0:	8fc20008 	lw	v0,8(s8)
  4009a4:	24420001 	addiu	v0,v0,1
  4009a8:	afc20008 	sw	v0,8(s8)
  4009ac:	8fc30008 	lw	v1,8(s8)
  4009b0:	8fc20024 	lw	v0,36(s8)
  4009b4:	0062102a 	slt	v0,v1,v0
  4009b8:	1440ffc6 	bnez	v0,4008d4 <ordenamiento_iterativo+0x24>
  4009bc:	00200825 	move	at,at
  4009c0:	00200825 	move	at,at
  4009c4:	03c0e825 	move	sp,s8
  4009c8:	8fbe001c 	lw	s8,28(sp)
  4009cc:	27bd0020 	addiu	sp,sp,32
  4009d0:	03e00008 	jr	ra
  4009d4:	00200825 	move	at,at

004009d8 <main>:
  4009d8:	27bdffc8 	addiu	sp,sp,-56
  4009dc:	afbf0034 	sw	ra,52(sp)
  4009e0:	afbe0030 	sw	s8,48(sp)
  4009e4:	03a0f025 	move	s8,sp
  4009e8:	3c1c0042 	lui	gp,0x42
  4009ec:	279c8e50 	addiu	gp,gp,-29104
  4009f0:	afbc0010 	sw	gp,16(sp)
  4009f4:	afc40038 	sw	a0,56(s8)
  4009f8:	afc5003c 	sw	a1,60(s8)
  4009fc:	afc00028 	sw	zero,40(s8)
  400a00:	afc0001c 	sw	zero,28(s8)
  400a04:	afc00018 	sw	zero,24(s8)
  400a08:	afc00020 	sw	zero,32(s8)
  400a0c:	afc00024 	sw	zero,36(s8)
  400a10:	8fc30038 	lw	v1,56(s8)
  400a14:	24020002 	li	v0,2
  400a18:	14620074 	bne	v1,v0,400bec <main+0x214>
  400a1c:	00200825 	move	at,at
  400a20:	8fc2003c 	lw	v0,60(s8)
  400a24:	24420004 	addiu	v0,v0,4
  400a28:	8c430000 	lw	v1,0(v0)
  400a2c:	3c020040 	lui	v0,0x40
  400a30:	24450e00 	addiu	a1,v0,3584
  400a34:	00602025 	move	a0,v1
  400a38:	8f828060 	lw	v0,-32672(gp)
  400a3c:	0040c825 	move	t9,v0
  400a40:	0320f809 	jalr	t9
  400a44:	00200825 	move	at,at
  400a48:	8fdc0010 	lw	gp,16(s8)
  400a4c:	afc20020 	sw	v0,32(s8)
  400a50:	3c020040 	lui	v0,0x40
  400a54:	24450e04 	addiu	a1,v0,3588
  400a58:	3c020040 	lui	v0,0x40
  400a5c:	24440e08 	addiu	a0,v0,3592
  400a60:	8f828060 	lw	v0,-32672(gp)
  400a64:	0040c825 	move	t9,v0
  400a68:	0320f809 	jalr	t9
  400a6c:	00200825 	move	at,at
  400a70:	8fdc0010 	lw	gp,16(s8)
  400a74:	afc20024 	sw	v0,36(s8)
  400a78:	27c20028 	addiu	v0,s8,40
  400a7c:	00403025 	move	a2,v0
  400a80:	3c020040 	lui	v0,0x40
  400a84:	24450e18 	addiu	a1,v0,3608
  400a88:	8fc40020 	lw	a0,32(s8)
  400a8c:	8f828064 	lw	v0,-32668(gp)
  400a90:	0040c825 	move	t9,v0
  400a94:	0320f809 	jalr	t9
  400a98:	00200825 	move	at,at
  400a9c:	8fdc0010 	lw	gp,16(s8)
  400aa0:	8fc20028 	lw	v0,40(s8)
  400aa4:	00021080 	sll	v0,v0,0x2
  400aa8:	00402025 	move	a0,v0
  400aac:	8f82805c 	lw	v0,-32676(gp)
  400ab0:	0040c825 	move	t9,v0
  400ab4:	0320f809 	jalr	t9
  400ab8:	00200825 	move	at,at
  400abc:	8fdc0010 	lw	gp,16(s8)
  400ac0:	afc2001c 	sw	v0,28(s8)
  400ac4:	10000011 	b	400b0c <main+0x134>
  400ac8:	00200825 	move	at,at
  400acc:	8fc20018 	lw	v0,24(s8)
  400ad0:	00021080 	sll	v0,v0,0x2
  400ad4:	8fc3001c 	lw	v1,28(s8)
  400ad8:	00621021 	addu	v0,v1,v0
  400adc:	00403025 	move	a2,v0
  400ae0:	3c020040 	lui	v0,0x40
  400ae4:	24450e1c 	addiu	a1,v0,3612
  400ae8:	8fc40020 	lw	a0,32(s8)
  400aec:	8f828064 	lw	v0,-32668(gp)
  400af0:	0040c825 	move	t9,v0
  400af4:	0320f809 	jalr	t9
  400af8:	00200825 	move	at,at
  400afc:	8fdc0010 	lw	gp,16(s8)
  400b00:	8fc20018 	lw	v0,24(s8)
  400b04:	24420001 	addiu	v0,v0,1
  400b08:	afc20018 	sw	v0,24(s8)
  400b0c:	8fc40020 	lw	a0,32(s8)
  400b10:	8f828050 	lw	v0,-32688(gp)
  400b14:	0040c825 	move	t9,v0
  400b18:	0320f809 	jalr	t9
  400b1c:	00200825 	move	at,at
  400b20:	8fdc0010 	lw	gp,16(s8)
  400b24:	1040ffe9 	beqz	v0,400acc <main+0xf4>
  400b28:	00200825 	move	at,at
  400b2c:	8fc20028 	lw	v0,40(s8)
  400b30:	00402825 	move	a1,v0
  400b34:	8fc4001c 	lw	a0,28(s8)
  400b38:	0c10022c 	jal	4008b0 <ordenamiento_iterativo>
  400b3c:	00200825 	move	at,at
  400b40:	8fdc0010 	lw	gp,16(s8)
  400b44:	afc00018 	sw	zero,24(s8)
  400b48:	10000012 	b	400b94 <main+0x1bc>
  400b4c:	00200825 	move	at,at
  400b50:	8fc20018 	lw	v0,24(s8)
  400b54:	00021080 	sll	v0,v0,0x2
  400b58:	8fc3001c 	lw	v1,28(s8)
  400b5c:	00621021 	addu	v0,v1,v0
  400b60:	8c420000 	lw	v0,0(v0)
  400b64:	00403025 	move	a2,v0
  400b68:	3c020040 	lui	v0,0x40
  400b6c:	24450e18 	addiu	a1,v0,3608
  400b70:	8fc40024 	lw	a0,36(s8)
  400b74:	8f828048 	lw	v0,-32696(gp)
  400b78:	0040c825 	move	t9,v0
  400b7c:	0320f809 	jalr	t9
  400b80:	00200825 	move	at,at
  400b84:	8fdc0010 	lw	gp,16(s8)
  400b88:	8fc20018 	lw	v0,24(s8)
  400b8c:	24420001 	addiu	v0,v0,1
  400b90:	afc20018 	sw	v0,24(s8)
  400b94:	8fc20028 	lw	v0,40(s8)
  400b98:	8fc30018 	lw	v1,24(s8)
  400b9c:	0062102a 	slt	v0,v1,v0
  400ba0:	1440ffeb 	bnez	v0,400b50 <main+0x178>
  400ba4:	00200825 	move	at,at
  400ba8:	8fc40020 	lw	a0,32(s8)
  400bac:	8f828040 	lw	v0,-32704(gp)
  400bb0:	0040c825 	move	t9,v0
  400bb4:	0320f809 	jalr	t9
  400bb8:	00200825 	move	at,at
  400bbc:	8fdc0010 	lw	gp,16(s8)
  400bc0:	8fc40024 	lw	a0,36(s8)
  400bc4:	8f828040 	lw	v0,-32704(gp)
  400bc8:	0040c825 	move	t9,v0
  400bcc:	0320f809 	jalr	t9
  400bd0:	00200825 	move	at,at
  400bd4:	8fdc0010 	lw	gp,16(s8)
  400bd8:	00002025 	move	a0,zero
  400bdc:	8f828054 	lw	v0,-32684(gp)
  400be0:	0040c825 	move	t9,v0
  400be4:	0320f809 	jalr	t9
  400be8:	00200825 	move	at,at
  400bec:	24040001 	li	a0,1
  400bf0:	8f828054 	lw	v0,-32684(gp)
  400bf4:	0040c825 	move	t9,v0
  400bf8:	0320f809 	jalr	t9
  400bfc:	00200825 	move	at,at

00400c00 <__libc_csu_init>:
  400c00:	3c1c0002 	lui	gp,0x2
  400c04:	279c8250 	addiu	gp,gp,-32176
  400c08:	0399e021 	addu	gp,gp,t9
  400c0c:	27bdffc8 	addiu	sp,sp,-56
  400c10:	8f998028 	lw	t9,-32728(gp)
  400c14:	afbc0010 	sw	gp,16(sp)
  400c18:	afb50030 	sw	s5,48(sp)
  400c1c:	00c0a825 	move	s5,a2
  400c20:	afb4002c 	sw	s4,44(sp)
  400c24:	00a0a025 	move	s4,a1
  400c28:	afb30028 	sw	s3,40(sp)
  400c2c:	00809825 	move	s3,a0
  400c30:	afb20024 	sw	s2,36(sp)
  400c34:	afb0001c 	sw	s0,28(sp)
  400c38:	afbf0034 	sw	ra,52(sp)
  400c3c:	0320f809 	jalr	t9
  400c40:	afb10020 	sw	s1,32(sp)
  400c44:	8fbc0010 	lw	gp,16(sp)
  400c48:	8f90802c 	lw	s0,-32724(gp)
  400c4c:	8f92802c 	lw	s2,-32724(gp)
  400c50:	02509023 	subu	s2,s2,s0
  400c54:	00129083 	sra	s2,s2,0x2
  400c58:	12400009 	beqz	s2,400c80 <__libc_csu_init+0x80>
  400c5c:	00008825 	move	s1,zero
  400c60:	8e190000 	lw	t9,0(s0)
  400c64:	26310001 	addiu	s1,s1,1
  400c68:	02602025 	move	a0,s3
  400c6c:	02802825 	move	a1,s4
  400c70:	0320f809 	jalr	t9
  400c74:	02a03025 	move	a2,s5
  400c78:	1632fff9 	bne	s1,s2,400c60 <__libc_csu_init+0x60>
  400c7c:	26100004 	addiu	s0,s0,4
  400c80:	8fbf0034 	lw	ra,52(sp)
  400c84:	8fb50030 	lw	s5,48(sp)
  400c88:	8fb4002c 	lw	s4,44(sp)
  400c8c:	8fb30028 	lw	s3,40(sp)
  400c90:	8fb20024 	lw	s2,36(sp)
  400c94:	8fb10020 	lw	s1,32(sp)
  400c98:	8fb0001c 	lw	s0,28(sp)
  400c9c:	03e00008 	jr	ra
  400ca0:	27bd0038 	addiu	sp,sp,56

00400ca4 <__libc_csu_fini>:
  400ca4:	03e00008 	jr	ra
  400ca8:	00200825 	move	at,at
  400cac:	00200825 	move	at,at

00400cb0 <__do_global_ctors_aux>:
  400cb0:	3c020041 	lui	v0,0x41
  400cb4:	8c590e24 	lw	t9,3620(v0)
  400cb8:	2402ffff 	li	v0,-1
  400cbc:	13220010 	beq	t9,v0,400d00 <__do_global_ctors_aux+0x50>
  400cc0:	00200825 	move	at,at
  400cc4:	27bdffd8 	addiu	sp,sp,-40
  400cc8:	afb0001c 	sw	s0,28(sp)
  400ccc:	3c100041 	lui	s0,0x41
  400cd0:	afb10020 	sw	s1,32(sp)
  400cd4:	2411ffff 	li	s1,-1
  400cd8:	26100e24 	addiu	s0,s0,3620
  400cdc:	afbf0024 	sw	ra,36(sp)
  400ce0:	0320f809 	jalr	t9
  400ce4:	2610fffc 	addiu	s0,s0,-4
  400ce8:	8e190000 	lw	t9,0(s0)
  400cec:	1731fffc 	bne	t9,s1,400ce0 <__do_global_ctors_aux+0x30>
  400cf0:	8fbf0024 	lw	ra,36(sp)
  400cf4:	8fb10020 	lw	s1,32(sp)
  400cf8:	8fb0001c 	lw	s0,28(sp)
  400cfc:	27bd0028 	addiu	sp,sp,40
  400d00:	03e00008 	jr	ra
  400d04:	00200825 	move	at,at
  400d08:	00200825 	move	at,at
  400d0c:	00200825 	move	at,at

Disassembly of section .fini:

00400da0 <_fini>:
  400da0:	3c1c0002 	lui	gp,0x2
  400da4:	279c80b0 	addiu	gp,gp,-32592
  400da8:	0399e021 	addu	gp,gp,t9
  400dac:	27bdffe0 	addiu	sp,sp,-32
  400db0:	afbc0010 	sw	gp,16(sp)
  400db4:	afbf001c 	sw	ra,28(sp)
  400db8:	04110001 	bal	400dc0 <_fini+0x20>
  400dbc:	00200825 	move	at,at
  400dc0:	3c1c0042 	lui	gp,0x42
  400dc4:	279c8e50 	addiu	gp,gp,-29104
  400dc8:	8f998024 	lw	t9,-32732(gp)
  400dcc:	273907ac 	addiu	t9,t9,1964
  400dd0:	0411fe76 	bal	4007ac <__do_global_dtors_aux>
  400dd4:	00200825 	move	at,at
  400dd8:	8fbf001c 	lw	ra,28(sp)
  400ddc:	03e00008 	jr	ra
  400de0:	27bd0020 	addiu	sp,sp,32
